; ModuleID = '23/122.c'
source_filename = "23/122.c"
target datalayout = "e-m:e-p270:32:32-p271:32:32-p272:64:64-i64:64-f80:128-n8:16:32:64-S128"
target triple = "x86_64-pc-linux-gnu"

@.str = private unnamed_addr constant [3 x i8] c"%c\00", align 1
@.str.1 = private unnamed_addr constant [2 x i8] c" \00", align 1
@.str.2 = private unnamed_addr constant [2 x i8] c"\0A\00", align 1

; Function Attrs: noinline nounwind uwtable
define dso_local void @main() #0 {
  %1 = alloca [101 x [101 x i8]], align 16
  %2 = alloca [101 x i8], align 16
  %3 = alloca i32, align 4
  %4 = alloca i32, align 4
  %5 = alloca i32, align 4
  %6 = alloca i32, align 4
  %7 = alloca i32, align 4
  store i32 1, i32* %3, align 4
  store i32 0, i32* %4, align 4
  store i32 0, i32* %5, align 4
  %8 = getelementptr inbounds [101 x i8], [101 x i8]* %2, i64 0, i64 0
  %9 = call i32 (i8*, ...) bitcast (i32 (...)* @gets to i32 (i8*, ...)*)(i8* %8)
  %10 = getelementptr inbounds [101 x i8], [101 x i8]* %2, i64 0, i64 0
  %11 = call i64 @strlen(i8* %10) #3
  %12 = trunc i64 %11 to i32
  store i32 %12, i32* %6, align 4
  store i32 0, i32* %4, align 4
  br label %13

13:                                               ; preds = %47, %0
  %14 = load i32, i32* %4, align 4
  %15 = load i32, i32* %6, align 4
  %16 = icmp slt i32 %14, %15
  br i1 %16, label %17, label %50

17:                                               ; preds = %13
  %18 = load i32, i32* %4, align 4
  %19 = sext i32 %18 to i64
  %20 = getelementptr inbounds [101 x i8], [101 x i8]* %2, i64 0, i64 %19
  %21 = load i8, i8* %20, align 1
  %22 = sext i8 %21 to i32
  %23 = icmp eq i32 %22, 32
  br i1 %23, label %24, label %33

24:                                               ; preds = %17
  %25 = load i32, i32* %3, align 4
  %26 = sext i32 %25 to i64
  %27 = getelementptr inbounds [101 x [101 x i8]], [101 x [101 x i8]]* %1, i64 0, i64 %26
  %28 = load i32, i32* %5, align 4
  %29 = sext i32 %28 to i64
  %30 = getelementptr inbounds [101 x i8], [101 x i8]* %27, i64 0, i64 %29
  store i8 0, i8* %30, align 1
  %31 = load i32, i32* %3, align 4
  %32 = add nsw i32 %31, 1
  store i32 %32, i32* %3, align 4
  store i32 0, i32* %5, align 4
  br label %46

33:                                               ; preds = %17
  %34 = load i32, i32* %4, align 4
  %35 = sext i32 %34 to i64
  %36 = getelementptr inbounds [101 x i8], [101 x i8]* %2, i64 0, i64 %35
  %37 = load i8, i8* %36, align 1
  %38 = load i32, i32* %3, align 4
  %39 = sext i32 %38 to i64
  %40 = getelementptr inbounds [101 x [101 x i8]], [101 x [101 x i8]]* %1, i64 0, i64 %39
  %41 = load i32, i32* %5, align 4
  %42 = sext i32 %41 to i64
  %43 = getelementptr inbounds [101 x i8], [101 x i8]* %40, i64 0, i64 %42
  store i8 %37, i8* %43, align 1
  %44 = load i32, i32* %5, align 4
  %45 = add nsw i32 %44, 1
  store i32 %45, i32* %5, align 4
  br label %46

46:                                               ; preds = %33, %24
  br label %47

47:                                               ; preds = %46
  %48 = load i32, i32* %4, align 4
  %49 = add nsw i32 %48, 1
  store i32 %49, i32* %4, align 4
  br label %13

50:                                               ; preds = %13
  %51 = load i32, i32* %3, align 4
  %52 = sext i32 %51 to i64
  %53 = getelementptr inbounds [101 x [101 x i8]], [101 x [101 x i8]]* %1, i64 0, i64 %52
  %54 = load i32, i32* %5, align 4
  %55 = sext i32 %54 to i64
  %56 = getelementptr inbounds [101 x i8], [101 x i8]* %53, i64 0, i64 %55
  store i8 0, i8* %56, align 1
  %57 = load i32, i32* %3, align 4
  store i32 %57, i32* %4, align 4
  br label %58

58:                                               ; preds = %93, %50
  %59 = load i32, i32* %4, align 4
  %60 = icmp sge i32 %59, 1
  br i1 %60, label %61, label %96

61:                                               ; preds = %58
  %62 = load i32, i32* %4, align 4
  %63 = sext i32 %62 to i64
  %64 = getelementptr inbounds [101 x [101 x i8]], [101 x [101 x i8]]* %1, i64 0, i64 %63
  %65 = getelementptr inbounds [101 x i8], [101 x i8]* %64, i64 0, i64 0
  %66 = call i64 @strlen(i8* %65) #3
  %67 = trunc i64 %66 to i32
  store i32 %67, i32* %7, align 4
  store i32 0, i32* %5, align 4
  br label %68

68:                                               ; preds = %82, %61
  %69 = load i32, i32* %5, align 4
  %70 = load i32, i32* %7, align 4
  %71 = icmp slt i32 %69, %70
  br i1 %71, label %72, label %85

72:                                               ; preds = %68
  %73 = load i32, i32* %4, align 4
  %74 = sext i32 %73 to i64
  %75 = getelementptr inbounds [101 x [101 x i8]], [101 x [101 x i8]]* %1, i64 0, i64 %74
  %76 = load i32, i32* %5, align 4
  %77 = sext i32 %76 to i64
  %78 = getelementptr inbounds [101 x i8], [101 x i8]* %75, i64 0, i64 %77
  %79 = load i8, i8* %78, align 1
  %80 = sext i8 %79 to i32
  %81 = call i32 (i8*, ...) @printf(i8* getelementptr inbounds ([3 x i8], [3 x i8]* @.str, i64 0, i64 0), i32 %80)
  br label %82

82:                                               ; preds = %72
  %83 = load i32, i32* %5, align 4
  %84 = add nsw i32 %83, 1
  store i32 %84, i32* %5, align 4
  br label %68

85:                                               ; preds = %68
  %86 = load i32, i32* %4, align 4
  %87 = icmp ne i32 %86, 1
  br i1 %87, label %88, label %90

88:                                               ; preds = %85
  %89 = call i32 (i8*, ...) @printf(i8* getelementptr inbounds ([2 x i8], [2 x i8]* @.str.1, i64 0, i64 0))
  br label %92

90:                                               ; preds = %85
  %91 = call i32 (i8*, ...) @printf(i8* getelementptr inbounds ([2 x i8], [2 x i8]* @.str.2, i64 0, i64 0))
  br label %92

92:                                               ; preds = %90, %88
  br label %93

93:                                               ; preds = %92
  %94 = load i32, i32* %4, align 4
  %95 = add nsw i32 %94, -1
  store i32 %95, i32* %4, align 4
  br label %58

96:                                               ; preds = %58
  ret void
}

declare dso_local i32 @gets(...) #1

; Function Attrs: nounwind readonly
declare dso_local i64 @strlen(i8*) #2

declare dso_local i32 @printf(i8*, ...) #1


!llvm.module.flags = !{!0}
!llvm.ident = !{!1}

!0 = !{i32 1, !"wchar_size", i32 4}
!1 = !{!"clang version 10.0.0-4ubuntu1 "}
